; ModuleID = '21/350.c'
source_filename = "21/350.c"
target datalayout = "e-m:e-p270:32:32-p271:32:32-p272:64:64-i64:64-f80:128-n8:16:32:64-S128"
target triple = "x86_64-pc-linux-gnu"

@.str = private unnamed_addr constant [3 x i8] c"%d\00", align 1
@.str.1 = private unnamed_addr constant [4 x i8] c",%d\00", align 1

; Function Attrs: noinline nounwind uwtable
define dso_local void @main() #0 {
  %1 = alloca i32, align 4
  %2 = alloca i32, align 4
  %3 = alloca i32, align 4
  %4 = alloca i32, align 4
  %5 = alloca [300 x i32], align 16
  %6 = alloca i32, align 4
  %7 = alloca [100 x i32], align 16
  %8 = alloca i32, align 4
  %9 = alloca i32, align 4
  %10 = alloca double, align 8
  %11 = alloca [300 x double], align 16
  %12 = alloca double, align 8
  store i32 0, i32* %6, align 4
  store i32 0, i32* %8, align 4
  store double 0.000000e+00, double* %12, align 8
  %13 = call i32 (i8*, ...) @__isoc99_scanf(i8* getelementptr inbounds ([3 x i8], [3 x i8]* @.str, i64 0, i64 0), i32* %1)
  store i32 1, i32* %2, align 4
  br label %14

14:                                               ; preds = %27, %0
  %15 = load i32, i32* %2, align 4
  %16 = load i32, i32* %1, align 4
  %17 = icmp sle i32 %15, %16
  br i1 %17, label %18, label %30

18:                                               ; preds = %14
  %19 = call i32 (i8*, ...) @__isoc99_scanf(i8* getelementptr inbounds ([3 x i8], [3 x i8]* @.str, i64 0, i64 0), i32* %4)
  %20 = load i32, i32* %6, align 4
  %21 = load i32, i32* %4, align 4
  %22 = add nsw i32 %20, %21
  store i32 %22, i32* %6, align 4
  %23 = load i32, i32* %4, align 4
  %24 = load i32, i32* %2, align 4
  %25 = sext i32 %24 to i64
  %26 = getelementptr inbounds [300 x i32], [300 x i32]* %5, i64 0, i64 %25
  store i32 %23, i32* %26, align 4
  br label %27

27:                                               ; preds = %18
  %28 = load i32, i32* %2, align 4
  %29 = add nsw i32 %28, 1
  store i32 %29, i32* %2, align 4
  br label %14

30:                                               ; preds = %14
  %31 = load i32, i32* %6, align 4
  %32 = sitofp i32 %31 to float
  %33 = load i32, i32* %1, align 4
  %34 = sitofp i32 %33 to float
  %35 = fdiv float %32, %34
  %36 = fpext float %35 to double
  store double %36, double* %10, align 8
  store i32 1, i32* %2, align 4
  br label %37

37:                                               ; preds = %53, %30
  %38 = load i32, i32* %2, align 4
  %39 = load i32, i32* %1, align 4
  %40 = icmp sle i32 %38, %39
  br i1 %40, label %41, label %56

41:                                               ; preds = %37
  %42 = load i32, i32* %2, align 4
  %43 = sext i32 %42 to i64
  %44 = getelementptr inbounds [300 x i32], [300 x i32]* %5, i64 0, i64 %43
  %45 = load i32, i32* %44, align 4
  %46 = sitofp i32 %45 to double
  %47 = load double, double* %10, align 8
  %48 = fsub double %46, %47
  %49 = call double @llvm.fabs.f64(double %48)
  %50 = load i32, i32* %2, align 4
  %51 = sext i32 %50 to i64
  %52 = getelementptr inbounds [300 x double], [300 x double]* %11, i64 0, i64 %51
  store double %49, double* %52, align 8
  br label %53

53:                                               ; preds = %41
  %54 = load i32, i32* %2, align 4
  %55 = add nsw i32 %54, 1
  store i32 %55, i32* %2, align 4
  br label %37

56:                                               ; preds = %37
  store i32 1, i32* %2, align 4
  br label %57

57:                                               ; preds = %93, %56
  %58 = load i32, i32* %2, align 4
  %59 = load i32, i32* %1, align 4
  %60 = icmp sle i32 %58, %59
  br i1 %60, label %61, label %96

61:                                               ; preds = %57
  %62 = load i32, i32* %2, align 4
  %63 = sext i32 %62 to i64
  %64 = getelementptr inbounds [300 x double], [300 x double]* %11, i64 0, i64 %63
  %65 = load double, double* %64, align 8
  %66 = load double, double* %12, align 8
  %67 = fcmp oge double %65, %66
  br i1 %67, label %68, label %92

68:                                               ; preds = %61
  %69 = load i32, i32* %2, align 4
  %70 = sext i32 %69 to i64
  %71 = getelementptr inbounds [300 x double], [300 x double]* %11, i64 0, i64 %70
  %72 = load double, double* %71, align 8
  %73 = load double, double* %12, align 8
  %74 = fcmp oeq double %72, %73
  br i1 %74, label %75, label %82

75:                                               ; preds = %68
  %76 = load i32, i32* %8, align 4
  %77 = add nsw i32 %76, 1
  store i32 %77, i32* %8, align 4
  %78 = load i32, i32* %2, align 4
  %79 = load i32, i32* %8, align 4
  %80 = sext i32 %79 to i64
  %81 = getelementptr inbounds [100 x i32], [100 x i32]* %7, i64 0, i64 %80
  store i32 %78, i32* %81, align 4
  br label %91

82:                                               ; preds = %68
  %83 = load i32, i32* %2, align 4
  %84 = sext i32 %83 to i64
  %85 = getelementptr inbounds [300 x double], [300 x double]* %11, i64 0, i64 %84
  %86 = load double, double* %85, align 8
  store double %86, double* %12, align 8
  %87 = load i32, i32* %2, align 4
  %88 = load i32, i32* %8, align 4
  %89 = sext i32 %88 to i64
  %90 = getelementptr inbounds [100 x i32], [100 x i32]* %7, i64 0, i64 %89
  store i32 %87, i32* %90, align 4
  br label %91

91:                                               ; preds = %82, %75
  br label %92

92:                                               ; preds = %91, %61
  br label %93

93:                                               ; preds = %92
  %94 = load i32, i32* %2, align 4
  %95 = add nsw i32 %94, 1
  store i32 %95, i32* %2, align 4
  br label %57

96:                                               ; preds = %57
  store i32 1, i32* %2, align 4
  br label %97

97:                                               ; preds = %161, %96
  %98 = load i32, i32* %2, align 4
  %99 = load i32, i32* %8, align 4
  %100 = icmp slt i32 %98, %99
  br i1 %100, label %101, label %164

101:                                              ; preds = %97
  store i32 0, i32* %3, align 4
  br label %102

102:                                              ; preds = %157, %101
  %103 = load i32, i32* %3, align 4
  %104 = load i32, i32* %8, align 4
  %105 = sub nsw i32 %104, 1
  %106 = load i32, i32* %2, align 4
  %107 = sub nsw i32 %105, %106
  %108 = icmp slt i32 %103, %107
  br i1 %108, label %109, label %160

109:                                              ; preds = %102
  %110 = load i32, i32* %3, align 4
  %111 = sext i32 %110 to i64
  %112 = getelementptr inbounds [100 x i32], [100 x i32]* %7, i64 0, i64 %111
  %113 = load i32, i32* %112, align 4
  %114 = sext i32 %113 to i64
  %115 = getelementptr inbounds [300 x i32], [300 x i32]* %5, i64 0, i64 %114
  %116 = load i32, i32* %115, align 4
  %117 = load i32, i32* %3, align 4
  %118 = add nsw i32 %117, 1
  %119 = sext i32 %118 to i64
  %120 = getelementptr inbounds [100 x i32], [100 x i32]* %7, i64 0, i64 %119
  %121 = load i32, i32* %120, align 4
  %122 = sext i32 %121 to i64
  %123 = getelementptr inbounds [300 x i32], [300 x i32]* %5, i64 0, i64 %122
  %124 = load i32, i32* %123, align 4
  %125 = icmp sgt i32 %116, %124
  br i1 %125, label %126, label %156

126:                                              ; preds = %109
  %127 = load i32, i32* %3, align 4
  %128 = sext i32 %127 to i64
  %129 = getelementptr inbounds [100 x i32], [100 x i32]* %7, i64 0, i64 %128
  %130 = load i32, i32* %129, align 4
  %131 = sext i32 %130 to i64
  %132 = getelementptr inbounds [300 x i32], [300 x i32]* %5, i64 0, i64 %131
  %133 = load i32, i32* %132, align 4
  store i32 %133, i32* %9, align 4
  %134 = load i32, i32* %3, align 4
  %135 = add nsw i32 %134, 1
  %136 = sext i32 %135 to i64
  %137 = getelementptr inbounds [100 x i32], [100 x i32]* %7, i64 0, i64 %136
  %138 = load i32, i32* %137, align 4
  %139 = sext i32 %138 to i64
  %140 = getelementptr inbounds [300 x i32], [300 x i32]* %5, i64 0, i64 %139
  %141 = load i32, i32* %140, align 4
  %142 = load i32, i32* %3, align 4
  %143 = sext i32 %142 to i64
  %144 = getelementptr inbounds [100 x i32], [100 x i32]* %7, i64 0, i64 %143
  %145 = load i32, i32* %144, align 4
  %146 = sext i32 %145 to i64
  %147 = getelementptr inbounds [300 x i32], [300 x i32]* %5, i64 0, i64 %146
  store i32 %141, i32* %147, align 4
  %148 = load i32, i32* %9, align 4
  %149 = load i32, i32* %3, align 4
  %150 = add nsw i32 %149, 1
  %151 = sext i32 %150 to i64
  %152 = getelementptr inbounds [100 x i32], [100 x i32]* %7, i64 0, i64 %151
  %153 = load i32, i32* %152, align 4
  %154 = sext i32 %153 to i64
  %155 = getelementptr inbounds [300 x i32], [300 x i32]* %5, i64 0, i64 %154
  store i32 %148, i32* %155, align 4
  br label %156

156:                                              ; preds = %126, %109
  br label %157

157:                                              ; preds = %156
  %158 = load i32, i32* %3, align 4
  %159 = add nsw i32 %158, 1
  store i32 %159, i32* %3, align 4
  br label %102

160:                                              ; preds = %102
  br label %161

161:                                              ; preds = %160
  %162 = load i32, i32* %2, align 4
  %163 = add nsw i32 %162, 1
  store i32 %163, i32* %2, align 4
  br label %97

164:                                              ; preds = %97
  %165 = getelementptr inbounds [100 x i32], [100 x i32]* %7, i64 0, i64 0
  %166 = load i32, i32* %165, align 16
  %167 = sext i32 %166 to i64
  %168 = getelementptr inbounds [300 x i32], [300 x i32]* %5, i64 0, i64 %167
  %169 = load i32, i32* %168, align 4
  %170 = call i32 (i8*, ...) @printf(i8* getelementptr inbounds ([3 x i8], [3 x i8]* @.str, i64 0, i64 0), i32 %169)
  store i32 1, i32* %2, align 4
  br label %171

171:                                              ; preds = %184, %164
  %172 = load i32, i32* %2, align 4
  %173 = load i32, i32* %8, align 4
  %174 = icmp sle i32 %172, %173
  br i1 %174, label %175, label %187

175:                                              ; preds = %171
  %176 = load i32, i32* %2, align 4
  %177 = sext i32 %176 to i64
  %178 = getelementptr inbounds [100 x i32], [100 x i32]* %7, i64 0, i64 %177
  %179 = load i32, i32* %178, align 4
  %180 = sext i32 %179 to i64
  %181 = getelementptr inbounds [300 x i32], [300 x i32]* %5, i64 0, i64 %180
  %182 = load i32, i32* %181, align 4
  %183 = call i32 (i8*, ...) @printf(i8* getelementptr inbounds ([4 x i8], [4 x i8]* @.str.1, i64 0, i64 0), i32 %182)
  br label %184

184:                                              ; preds = %175
  %185 = load i32, i32* %2, align 4
  %186 = add nsw i32 %185, 1
  store i32 %186, i32* %2, align 4
  br label %171

187:                                              ; preds = %171
  ret void
}

declare dso_local i32 @__isoc99_scanf(i8*, ...) #1

; Function Attrs: nounwind readnone speculatable willreturn
declare double @llvm.fabs.f64(double) #2

declare dso_local i32 @printf(i8*, ...) #1


!llvm.module.flags = !{!0}
!llvm.ident = !{!1}

!0 = !{i32 1, !"wchar_size", i32 4}
!1 = !{!"clang version 10.0.0-4ubuntu1 "}
